target datalayout = "e-m:e-p270:32:32-p271:32:32-p272:64:64-i64:64-i128:128-f80:128-n8:16:32:64-S128"
target triple = "x86_64-pc-linux-gnu"

%struct.prov_cipher_ctx_st = type { [16 x i8], [16 x i8], [16 x i8], ptr, %union.anon, i32, i64, i64, i64, i64, i32, i8, i32, ptr, i32, i64, i32, i64, i32, ptr, ptr, ptr }
%union.anon = type { ptr }

; Function Attrs: nounwind uwtable
define i32 @ossl_cipher_cbc_cts_block_update(ptr noundef %0, ptr noundef %1, ptr noundef %2, i64 noundef %3, ptr noundef %4, i64 noundef %5) #0 {
  %7 = alloca i32, align 4
  %8 = alloca ptr, align 8
  %9 = alloca ptr, align 8
  %10 = alloca ptr, align 8
  %11 = alloca i64, align 8
  %12 = alloca ptr, align 8
  %13 = alloca i64, align 8
  %14 = alloca ptr, align 8
  %15 = alloca i64, align 8
  %16 = alloca i32, align 4
  store ptr %0, ptr %8, align 8, !tbaa !18
  store ptr %1, ptr %9, align 8, !tbaa !16
  store ptr %2, ptr %10, align 8, !tbaa !19
  store i64 %3, ptr %11, align 8, !tbaa !7
  store ptr %4, ptr %12, align 8, !tbaa !16
  store i64 %5, ptr %13, align 8, !tbaa !7
  call void @llvm.lifetime.start.p0(i64 8, ptr %14) #5
  %17 = load ptr, ptr %8, align 8, !tbaa !18
  store ptr %17, ptr %14, align 8, !tbaa !21
  call void @llvm.lifetime.start.p0(i64 8, ptr %15) #5
  store i64 0, ptr %15, align 8, !tbaa !7
  %18 = load i64, ptr %13, align 8, !tbaa !7
  %19 = icmp ult i64 %18, 16
  br i1 %19, label %20, label %21

20:                                               ; preds = %6
  store i32 0, ptr %7, align 4
  store i32 1, ptr %16, align 4
  br label %133

21:                                               ; preds = %6
  %22 = load i64, ptr %11, align 8, !tbaa !7
  %23 = load i64, ptr %13, align 8, !tbaa !7
  %24 = icmp ult i64 %22, %23
  br i1 %24, label %25, label %26

25:                                               ; preds = %21
  store i32 0, ptr %7, align 4
  store i32 1, ptr %16, align 4
  br label %133

26:                                               ; preds = %21
  %27 = load ptr, ptr %9, align 8, !tbaa !16
  %28 = icmp eq ptr %27, null
  br i1 %28, label %29, label %32

29:                                               ; preds = %26
  %30 = load i64, ptr %13, align 8, !tbaa !7
  %31 = load ptr, ptr %10, align 8, !tbaa !19
  store i64 %30, ptr %31, align 8, !tbaa !7
  store i32 1, ptr %7, align 4
  store i32 1, ptr %16, align 4
  br label %133

32:                                               ; preds = %26
  %33 = load ptr, ptr %14, align 8, !tbaa !21
  %34 = getelementptr inbounds nuw %struct.prov_cipher_ctx_st, ptr %33, i32 0, i32 11
  %35 = load i8, ptr %34, align 4
  %36 = lshr i8 %35, 4
  %37 = and i8 %36, 1
  %38 = zext i8 %37 to i32
  %39 = icmp eq i32 %38, 1
  br i1 %39, label %40, label %41

40:                                               ; preds = %32
  store i32 0, ptr %7, align 4
  store i32 1, ptr %16, align 4
  br label %133

41:                                               ; preds = %32
  %42 = load ptr, ptr %14, align 8, !tbaa !21
  %43 = getelementptr inbounds nuw %struct.prov_cipher_ctx_st, ptr %42, i32 0, i32 11
  %44 = load i8, ptr %43, align 4
  %45 = lshr i8 %44, 1
  %46 = and i8 %45, 1
  %47 = zext i8 %46 to i32
  %48 = icmp ne i32 %47, 0
  br i1 %48, label %49, label %85

49:                                               ; preds = %41
  %50 = load ptr, ptr %14, align 8, !tbaa !21
  %51 = getelementptr inbounds nuw %struct.prov_cipher_ctx_st, ptr %50, i32 0, i32 10
  %52 = load i32, ptr %51, align 8, !tbaa !23
  %53 = icmp eq i32 %52, 0
  br i1 %53, label %54, label %60

54:                                               ; preds = %49
  %55 = load ptr, ptr %14, align 8, !tbaa !21
  %56 = load ptr, ptr %12, align 8, !tbaa !16
  %57 = load ptr, ptr %9, align 8, !tbaa !16
  %58 = load i64, ptr %13, align 8, !tbaa !7
  %59 = call i64 @cts128_cs1_encrypt(ptr noundef %55, ptr noundef %56, ptr noundef %57, i64 noundef %58)
  store i64 %59, ptr %15, align 8, !tbaa !7
  br label %84

60:                                               ; preds = %49
  %61 = load ptr, ptr %14, align 8, !tbaa !21
  %62 = getelementptr inbounds nuw %struct.prov_cipher_ctx_st, ptr %61, i32 0, i32 10
  %63 = load i32, ptr %62, align 8, !tbaa !23
  %64 = icmp eq i32 %63, 1
  br i1 %64, label %65, label %71

65:                                               ; preds = %60
  %66 = load ptr, ptr %14, align 8, !tbaa !21
  %67 = load ptr, ptr %12, align 8, !tbaa !16
  %68 = load ptr, ptr %9, align 8, !tbaa !16
  %69 = load i64, ptr %13, align 8, !tbaa !7
  %70 = call i64 @cts128_cs2_encrypt(ptr noundef %66, ptr noundef %67, ptr noundef %68, i64 noundef %69)
  store i64 %70, ptr %15, align 8, !tbaa !7
  br label %83

71:                                               ; preds = %60
  %72 = load ptr, ptr %14, align 8, !tbaa !21
  %73 = getelementptr inbounds nuw %struct.prov_cipher_ctx_st, ptr %72, i32 0, i32 10
  %74 = load i32, ptr %73, align 8, !tbaa !23
  %75 = icmp eq i32 %74, 2
  br i1 %75, label %76, label %82

76:                                               ; preds = %71
  %77 = load ptr, ptr %14, align 8, !tbaa !21
  %78 = load ptr, ptr %12, align 8, !tbaa !16
  %79 = load ptr, ptr %9, align 8, !tbaa !16
  %80 = load i64, ptr %13, align 8, !tbaa !7
  %81 = call i64 @cts128_cs3_encrypt(ptr noundef %77, ptr noundef %78, ptr noundef %79, i64 noundef %80)
  store i64 %81, ptr %15, align 8, !tbaa !7
  br label %82

82:                                               ; preds = %76, %71
  br label %83

83:                                               ; preds = %82, %65
  br label %84

84:                                               ; preds = %83, %54
  br label %121

85:                                               ; preds = %41
  %86 = load ptr, ptr %14, align 8, !tbaa !21
  %87 = getelementptr inbounds nuw %struct.prov_cipher_ctx_st, ptr %86, i32 0, i32 10
  %88 = load i32, ptr %87, align 8, !tbaa !23
  %89 = icmp eq i32 %88, 0
  br i1 %89, label %90, label %96

90:                                               ; preds = %85
  %91 = load ptr, ptr %14, align 8, !tbaa !21
  %92 = load ptr, ptr %12, align 8, !tbaa !16
  %93 = load ptr, ptr %9, align 8, !tbaa !16
  %94 = load i64, ptr %13, align 8, !tbaa !7
  %95 = call i64 @cts128_cs1_decrypt(ptr noundef %91, ptr noundef %92, ptr noundef %93, i64 noundef %94)
  store i64 %95, ptr %15, align 8, !tbaa !7
  br label %120

96:                                               ; preds = %85
  %97 = load ptr, ptr %14, align 8, !tbaa !21
  %98 = getelementptr inbounds nuw %struct.prov_cipher_ctx_st, ptr %97, i32 0, i32 10
  %99 = load i32, ptr %98, align 8, !tbaa !23
  %100 = icmp eq i32 %99, 1
  br i1 %100, label %101, label %107

101:                                              ; preds = %96
  %102 = load ptr, ptr %14, align 8, !tbaa !21
  %103 = load ptr, ptr %12, align 8, !tbaa !16
  %104 = load ptr, ptr %9, align 8, !tbaa !16
  %105 = load i64, ptr %13, align 8, !tbaa !7
  %106 = call i64 @cts128_cs2_decrypt(ptr noundef %102, ptr noundef %103, ptr noundef %104, i64 noundef %105)
  store i64 %106, ptr %15, align 8, !tbaa !7
  br label %119

107:                                              ; preds = %96
  %108 = load ptr, ptr %14, align 8, !tbaa !21
  %109 = getelementptr inbounds nuw %struct.prov_cipher_ctx_st, ptr %108, i32 0, i32 10
  %110 = load i32, ptr %109, align 8, !tbaa !23
  %111 = icmp eq i32 %110, 2
  br i1 %111, label %112, label %118

112:                                              ; preds = %107
  %113 = load ptr, ptr %14, align 8, !tbaa !21
  %114 = load ptr, ptr %12, align 8, !tbaa !16
  %115 = load ptr, ptr %9, align 8, !tbaa !16
  %116 = load i64, ptr %13, align 8, !tbaa !7
  %117 = call i64 @cts128_cs3_decrypt(ptr noundef %113, ptr noundef %114, ptr noundef %115, i64 noundef %116)
  store i64 %117, ptr %15, align 8, !tbaa !7
  br label %118

118:                                              ; preds = %112, %107
  br label %119

119:                                              ; preds = %118, %101
  br label %120

120:                                              ; preds = %119, %90
  br label %121

121:                                              ; preds = %120, %84
  %122 = load i64, ptr %15, align 8, !tbaa !7
  %123 = icmp eq i64 %122, 0
  br i1 %123, label %124, label %125

124:                                              ; preds = %121
  store i32 0, ptr %7, align 4
  store i32 1, ptr %16, align 4
  br label %133

125:                                              ; preds = %121
  %126 = load ptr, ptr %14, align 8, !tbaa !21
  %127 = getelementptr inbounds nuw %struct.prov_cipher_ctx_st, ptr %126, i32 0, i32 11
  %128 = load i8, ptr %127, align 4
  %129 = and i8 %128, -17
  %130 = or i8 %129, 16
  store i8 %130, ptr %127, align 4
  %131 = load i64, ptr %15, align 8, !tbaa !7
  %132 = load ptr, ptr %10, align 8, !tbaa !19
  store i64 %131, ptr %132, align 8, !tbaa !7
  store i32 1, ptr %7, align 4
  store i32 1, ptr %16, align 4
  br label %133

133:                                              ; preds = %125, %124, %40, %29, %25, %20
  call void @llvm.lifetime.end.p0(i64 8, ptr %15) #5
  call void @llvm.lifetime.end.p0(i64 8, ptr %14) #5
  %134 = load i32, ptr %7, align 4
  ret i32 %134
}