; Function Attrs: nounwind uwtable
define range(i32 0, 2) i32 @ossl_cipher_cbc_cts_block_update(ptr noundef %0, ptr noundef %1, ptr noundef writeonly captures(none) %2, i64 noundef %3, ptr noundef %4, i64 noundef %5) local_unnamed_addr #2 {
  %7 = icmp ult i64 %5, 16
  %8 = icmp ult i64 %3, %5
  %or.cond = or i1 %7, %8
  br i1 %or.cond, label %.thread, label %9

9:                                                ; preds = %6
  %10 = icmp eq ptr %1, null
  br i1 %10, label %.thread.sink.split, label %11

11:                                               ; preds = %9
  %12 = getelementptr inbounds nuw i8, ptr %0, i64 108
  %13 = load i8, ptr %12, align 4
  %14 = and i8 %13, 16
  %.not = icmp eq i8 %14, 0
  br i1 %.not, label %15, label %.thread

15:                                               ; preds = %11
  %16 = and i8 %13, 2
  %.not48 = icmp eq i8 %16, 0
  %17 = getelementptr inbounds nuw i8, ptr %0, i64 104
  %18 = load i32, ptr %17, align 8, !tbaa !14
  br i1 %.not48, label %26, label %19

19:                                               ; preds = %15
  switch i32 %18, label %.thread [
    i32 0, label %20
    i32 1, label %22
    i32 2, label %24
  ]

20:                                               ; preds = %19
  %21 = tail call fastcc i64 @cts128_cs1_encrypt(ptr noundef nonnull %0, ptr noundef %4, ptr noundef %1, i64 noundef %5)
  br label %33

22:                                               ; preds = %19
  %23 = tail call fastcc i64 @cts128_cs2_encrypt(ptr noundef nonnull %0, ptr noundef %4, ptr noundef %1, i64 noundef %5)
  br label %33

24:                                               ; preds = %19
  %25 = tail call fastcc i64 @cts128_cs3_encrypt(ptr noundef nonnull %0, ptr noundef %4, ptr noundef %1, i64 noundef %5)
  br label %33

26:                                               ; preds = %15
  switch i32 %18, label %.thread [
    i32 0, label %27
    i32 1, label %29
    i32 2, label %31
  ]

27:                                               ; preds = %26
  %28 = tail call fastcc i64 @cts128_cs1_decrypt(ptr noundef nonnull %0, ptr noundef %4, ptr noundef %1, i64 noundef %5)
  br label %33

29:                                               ; preds = %26
  %30 = tail call fastcc i64 @cts128_cs2_decrypt(ptr noundef nonnull %0, ptr noundef %4, ptr noundef %1, i64 noundef %5)
  br label %33

31:                                               ; preds = %26
  %32 = tail call fastcc i64 @cts128_cs3_decrypt(ptr noundef nonnull %0, ptr noundef %4, ptr noundef %1, i64 noundef %5)
  br label %33

33:                                               ; preds = %27, %31, %29, %20, %24, %22
  %.0 = phi i64 [ %21, %20 ], [ %23, %22 ], [ %25, %24 ], [ %28, %27 ], [ %30, %29 ], [ %32, %31 ]
  %34 = icmp eq i64 %.0, 0
  br i1 %34, label %.thread, label %35

35:                                               ; preds = %33
  %36 = load i8, ptr %12, align 4
  %37 = or i8 %36, 16
  store i8 %37, ptr %12, align 4
  br label %.thread.sink.split

.thread.sink.split:                               ; preds = %9, %35
  %.0.sink = phi i64 [ %.0, %35 ], [ %5, %9 ]
  store i64 %.0.sink, ptr %2, align 8, !tbaa !19
  br label %.thread

.thread:                                          ; preds = %.thread.sink.split, %26, %19, %33, %11, %6
  %.043 = phi i32 [ 0, %6 ], [ 0, %11 ], [ 0, %33 ], [ 0, %19 ], [ 0, %26 ], [ 1, %.thread.sink.split ]
  ret i32 %.043
}